target datalayout = "e-m:e-p270:32:32-p271:32:32-p272:64:64-i64:64-i128:128-f80:128-n8:16:32:64-S128"
target triple = "x86_64-unknown-linux-gnu"

%struct.Chardev = type { %struct.Object, %struct.QemuMutex, ptr, ptr, ptr, i32, i32, i8, ptr, ptr, [1 x i64] }
%struct.Object = type { ptr, ptr, ptr, i32, ptr }
%struct.QemuMutex = type { %union.pthread_mutex_t, i8 }
%union.pthread_mutex_t = type { %struct.__pthread_mutex_s }
%struct.__pthread_mutex_s = type { i32, i32, i32, i32, i32, i16, i16, %struct.__pthread_internal_list }
%struct.__pthread_internal_list = type { ptr, ptr }
%struct.CharBackend = type { ptr, ptr, ptr, ptr, ptr, ptr, i32, i32 }

@.str.4 = private unnamed_addr constant [8 x i8] c"chardev\00", align 1
@.str.104 = private unnamed_addr constant [101 x i8] c"/home/dtcxzyw/WorkSpace/Projects/compilers/llvm-opt-benchmark/bench/qemu/qemu/include/chardev/char.h\00", align 1
@__func__.CHARDEV = private unnamed_addr constant [8 x i8] c"CHARDEV\00", align 1

; Function Attrs: nounwind sspstrong uwtable
define internal ptr @CHARDEV(ptr noundef %obj) #0 {
entry:
  %obj.addr = alloca ptr, align 8
  store ptr %obj, ptr %obj.addr, align 8
  %0 = load ptr, ptr %obj.addr, align 8
  %call = call ptr @object_dynamic_cast_assert(ptr noundef %0, ptr noundef @.str.4, ptr noundef @.str.104, i32 noundef 231, ptr noundef @__func__.CHARDEV)
  ret ptr %call
}

; Function Attrs: nounwind sspstrong uwtable
define internal void @char_finalize(ptr noundef %obj) #0 {
entry:
  %obj.addr = alloca ptr, align 8
  %chr = alloca ptr, align 8
  store ptr %obj, ptr %obj.addr, align 8
  %0 = load ptr, ptr %obj.addr, align 8
  %call = call ptr @CHARDEV(ptr noundef %0)
  store ptr %call, ptr %chr, align 8
  %1 = load ptr, ptr %chr, align 8
  %be = getelementptr inbounds %struct.Chardev, ptr %1, i32 0, i32 2
  %2 = load ptr, ptr %be, align 8
  %tobool = icmp ne ptr %2, null
  br i1 %tobool, label %if.then, label %if.end

if.then:                                          ; preds = %entry
  %3 = load ptr, ptr %chr, align 8
  %be1 = getelementptr inbounds %struct.Chardev, ptr %3, i32 0, i32 2
  %4 = load ptr, ptr %be1, align 8
  %chr2 = getelementptr inbounds %struct.CharBackend, ptr %4, i32 0, i32 0
  store ptr null, ptr %chr2, align 8
  br label %if.end

if.end:                                           ; preds = %if.then, %entry
  %5 = load ptr, ptr %chr, align 8
  %filename = getelementptr inbounds %struct.Chardev, ptr %5, i32 0, i32 4
  %6 = load ptr, ptr %filename, align 8
  call void @g_free(ptr noundef %6)
  %7 = load ptr, ptr %chr, align 8
  %label = getelementptr inbounds %struct.Chardev, ptr %7, i32 0, i32 3
  %8 = load ptr, ptr %label, align 8
  call void @g_free(ptr noundef %8)
  %9 = load ptr, ptr %chr, align 8
  %logfd = getelementptr inbounds %struct.Chardev, ptr %9, i32 0, i32 5
  %10 = load i32, ptr %logfd, align 8
  %cmp = icmp ne i32 %10, -1
  br i1 %cmp, label %if.then3, label %if.end6

if.then3:                                         ; preds = %if.end
  %11 = load ptr, ptr %chr, align 8
  %logfd4 = getelementptr inbounds %struct.Chardev, ptr %11, i32 0, i32 5
  %12 = load i32, ptr %logfd4, align 8
  %call5 = call i32 @close(i32 noundef %12)
  br label %if.end6

if.end6:                                          ; preds = %if.then3, %if.end
  %13 = load ptr, ptr %chr, align 8
  %chr_write_lock = getelementptr inbounds %struct.Chardev, ptr %13, i32 0, i32 1
  call void @qemu_mutex_destroy(ptr noundef %chr_write_lock)
  ret void
}