; Function Attrs: nounwind sspstrong uwtable
define internal void @char_finalize(ptr noundef %obj) #0 {
entry:
  %call.i = tail call ptr @object_dynamic_cast_assert(ptr noundef %obj, ptr noundef nonnull @.str.4, ptr noundef nonnull @.str.104, i32 noundef 231, ptr noundef nonnull @__func__.CHARDEV) #13
  %be = getelementptr inbounds nuw i8, ptr %call.i, i64 88
  %0 = load ptr, ptr %be, align 8
  %tobool.not = icmp eq ptr %0, null
  br i1 %tobool.not, label %if.end, label %if.then

if.then:                                          ; preds = %entry
  store ptr null, ptr %0, align 8
  br label %if.end

if.end:                                           ; preds = %if.then, %entry
  %filename = getelementptr inbounds nuw i8, ptr %call.i, i64 104
  %1 = load ptr, ptr %filename, align 8
  tail call void @g_free(ptr noundef %1) #13
  %label = getelementptr inbounds nuw i8, ptr %call.i, i64 96
  %2 = load ptr, ptr %label, align 8
  tail call void @g_free(ptr noundef %2) #13
  %logfd = getelementptr inbounds nuw i8, ptr %call.i, i64 112
  %3 = load i32, ptr %logfd, align 8
  %cmp.not = icmp eq i32 %3, -1
  br i1 %cmp.not, label %if.end6, label %if.then3

if.then3:                                         ; preds = %if.end
  %call5 = tail call i32 @close(i32 noundef %3) #13
  br label %if.end6

if.end6:                                          ; preds = %if.then3, %if.end
  %chr_write_lock = getelementptr inbounds nuw i8, ptr %call.i, i64 40
  tail call void @qemu_mutex_destroy(ptr noundef nonnull %chr_write_lock) #13
  ret void
}